(dp1
I0
S'corredor'
p2
sI1
S'Ascensor'
p3
sI2
S'corredor estrecho'
p4
sI3
S'Escalera'
p5
sI4
S'default4'
p6
sI5
S'default5'
p7
sI6
S'default6'
p8
sI7
S'default7'
p9
sI8
S'default8'
p10
sI9
S'default9'
p11
sI10
S'default10'
p12
sI11
S'default11'
p13
sI12
S'default12'
p14
sI13
S'default13'
p15
sI14
S'default14'
p16
sI15
S'default15'
p17
sI16
S'default16'
p18
sI17
S'default17'
p19
sI18
S'default18'
p20
sI19
S'default19'
p21
sI20
S'default20'
p22
sI21
S'default21'
p23
sI22
S'default22'
p24
sI23
S'default23'
p25
sI24
S'default24'
p26
sI25
S'default25'
p27
sI26
S'default26'
p28
sI27
S'default27'
p29
sI28
S'default28'
p30
sI29
S'default29'
p31
sI30
S'default30'
p32
sI31
S'default31'
p33
sI32
S'default32'
p34
sI33
S'default33'
p35
sI34
S'default34'
p36
sI35
S'default35'
p37
sI36
S'default36'
p38
sI37
S'default37'
p39
sI38
S'default38'
p40
sI39
S'default39'
p41
sI40
S'default40'
p42
sI41
S'default41'
p43
sI42
S'default42'
p44
sI43
S'default43'
p45
sI44
S'default44'
p46
sI45
S'default45'
p47
sI46
S'default46'
p48
sI47
S'default47'
p49
sI48
S'default48'
p50
sI49
S'default49'
p51
sI50
S'default50'
p52
sI51
S'default51'
p53
sI52
S'default52'
p54
sI53
S'default53'
p55
sI54
S'default54'
p56
sI55
S'default55'
p57
sI56
S'default56'
p58
sI57
S'default57'
p59
sI58
S'default58'
p60
sI59
S'default59'
p61
sI60
S'default60'
p62
sI61
S'default61'
p63
sI62
S'default62'
p64
sI63
S'default63'
p65
sI64
S'default64'
p66
sI65
S'default65'
p67
sI66
S'default66'
p68
sI67
S'default67'
p69
sI68
S'default68'
p70
sI69
S'default69'
p71
sI70
S'default70'
p72
sI71
S'default71'
p73
sI72
S'default72'
p74
sI73
S'default73'
p75
sI74
S'default74'
p76
sI75
S'default75'
p77
sI76
S'default76'
p78
sI77
S'default77'
p79
sI78
S'default78'
p80
sI79
S'default79'
p81
sI80
S'default80'
p82
sI81
S'default81'
p83
sI82
S'default82'
p84
sI83
S'default83'
p85
sI84
S'default84'
p86
sI85
S'default85'
p87
sI86
S'default86'
p88
sI87
S'default87'
p89
sI88
S'default88'
p90
sI89
S'default89'
p91
sI90
S'default90'
p92
sI91
S'default91'
p93
sI92
S'default92'
p94
sI93
S'default93'
p95
sI94
S'default94'
p96
sI95
S'default95'
p97
sI96
S'default96'
p98
sI97
S'default97'
p99
sI98
S'default98'
p100
sI99
S'default99'
p101
sS'New'
p102
S'Create Element'
p103
s.